	.file	"testcode.cpp"
	.intel_syntax noprefix
	.text
.Ltext0:
	.local	_ZStL8__ioinit
	.comm	_ZStL8__ioinit,1,1
	.globl	main
	.type	main, @function
main:
.LFB970:
	.file 1 "testcode.cpp"
	.loc 1 10 0
	.cfi_startproc
	push	ebp
.LCFI0:
	.cfi_def_cfa_offset 8
	.cfi_offset 5, -8
	mov	ebp, esp
.LCFI1:
	.cfi_def_cfa_register 5
	and	esp, -16
	sub	esp, 32
.LBB2:
	.loc 1 12 0
	mov	DWORD PTR [esp+24], 3
	.loc 1 15 0
	lea	eax, [esp+24]
	mov	DWORD PTR [esp], eax
	call	_Z5refopRi
	mov	DWORD PTR [esp+28], eax
	.loc 1 17 0
	mov	eax, DWORD PTR [esp+28]
	mov	DWORD PTR [esp+4], eax
	mov	DWORD PTR [esp], OFFSET FLAT:_ZSt4cout
	call	_ZNSolsEi
	mov	DWORD PTR [esp+4], OFFSET FLAT:_ZSt4endlIcSt11char_traitsIcEERSt13basic_ostreamIT_T0_ES6_
	mov	DWORD PTR [esp], eax
	call	_ZNSolsEPFRSoS_E
.LBE2:
	mov	eax, 0
	.loc 1 18 0
	leave
	.cfi_restore 5
.LCFI2:
	.cfi_def_cfa 4, 4
	ret
	.cfi_endproc
.LFE970:
	.size	main, .-main
	.globl	_Z7arrayopPi
	.type	_Z7arrayopPi, @function
_Z7arrayopPi:
.LFB971:
	.loc 1 20 0
	.cfi_startproc
	push	ebp
.LCFI3:
	.cfi_def_cfa_offset 8
	.cfi_offset 5, -8
	mov	ebp, esp
.LCFI4:
	.cfi_def_cfa_register 5
	sub	esp, 16
.LBB3:
	.loc 1 21 0
	mov	eax, DWORD PTR [ebp+8]
	mov	edx, DWORD PTR [eax]
	mov	eax, DWORD PTR [ebp+8]
	add	eax, 4
	mov	eax, DWORD PTR [eax]
	add	edx, eax
	mov	eax, DWORD PTR [ebp+8]
	add	eax, 8
	mov	eax, DWORD PTR [eax]
	add	eax, edx
	mov	DWORD PTR [ebp-4], eax
	.loc 1 22 0
	mov	eax, DWORD PTR [ebp-4]
.LBE3:
	.loc 1 23 0
	leave
	.cfi_restore 5
.LCFI5:
	.cfi_def_cfa 4, 4
	ret
	.cfi_endproc
.LFE971:
	.size	_Z7arrayopPi, .-_Z7arrayopPi
	.globl	_Z5numopi
	.type	_Z5numopi, @function
_Z5numopi:
.LFB972:
	.loc 1 25 0
	.cfi_startproc
	push	ebp
.LCFI6:
	.cfi_def_cfa_offset 8
	.cfi_offset 5, -8
	mov	ebp, esp
.LCFI7:
	.cfi_def_cfa_register 5
	sub	esp, 16
.LBB4:
	.loc 1 26 0
	mov	edx, DWORD PTR [ebp+8]
	mov	eax, edx
	add	eax, eax
	add	eax, edx
	mov	DWORD PTR [ebp-4], eax
	.loc 1 27 0
	mov	eax, DWORD PTR [ebp-4]
.LBE4:
	.loc 1 28 0
	leave
	.cfi_restore 5
.LCFI8:
	.cfi_def_cfa 4, 4
	ret
	.cfi_endproc
.LFE972:
	.size	_Z5numopi, .-_Z5numopi
	.globl	_Z5refopRi
	.type	_Z5refopRi, @function
_Z5refopRi:
.LFB973:
	.loc 1 30 0
	.cfi_startproc
	push	ebp
.LCFI9:
	.cfi_def_cfa_offset 8
	.cfi_offset 5, -8
	mov	ebp, esp
.LCFI10:
	.cfi_def_cfa_register 5
	sub	esp, 16
.LBB5:
	.loc 1 31 0
	mov	eax, DWORD PTR [ebp+8]
	mov	edx, DWORD PTR [eax]
	mov	eax, edx
	add	eax, eax
	add	eax, edx
	mov	DWORD PTR [ebp-4], eax
	.loc 1 32 0
	mov	eax, DWORD PTR [ebp-4]
.LBE5:
	.loc 1 33 0
	leave
	.cfi_restore 5
.LCFI11:
	.cfi_def_cfa 4, 4
	ret
	.cfi_endproc
.LFE973:
	.size	_Z5refopRi, .-_Z5refopRi
	.type	_Z41__static_initialization_and_destruction_0ii, @function
_Z41__static_initialization_and_destruction_0ii:
.LFB979:
	.loc 1 33 0
	.cfi_startproc
	push	ebp
.LCFI12:
	.cfi_def_cfa_offset 8
	.cfi_offset 5, -8
	mov	ebp, esp
.LCFI13:
	.cfi_def_cfa_register 5
	sub	esp, 24
	.loc 1 33 0
	cmp	DWORD PTR [ebp+8], 1
	jne	.L5
	.loc 1 33 0 is_stmt 0 discriminator 1
	cmp	DWORD PTR [ebp+12], 65535
	jne	.L5
	.file 2 "/usr/include/c++/4.6/iostream"
	.loc 2 75 0 is_stmt 1
	mov	DWORD PTR [esp], OFFSET FLAT:_ZStL8__ioinit
	call	_ZNSt8ios_base4InitC1Ev
	mov	eax, OFFSET FLAT:_ZNSt8ios_base4InitD1Ev
	mov	DWORD PTR [esp+8], OFFSET FLAT:__dso_handle
	mov	DWORD PTR [esp+4], OFFSET FLAT:_ZStL8__ioinit
	mov	DWORD PTR [esp], eax
	call	__cxa_atexit
.L5:
	.loc 1 33 0
	leave
	.cfi_restore 5
.LCFI14:
	.cfi_def_cfa 4, 4
	ret
	.cfi_endproc
.LFE979:
	.size	_Z41__static_initialization_and_destruction_0ii, .-_Z41__static_initialization_and_destruction_0ii
	.type	_GLOBAL__sub_I_main, @function
_GLOBAL__sub_I_main:
.LFB980:
	.loc 1 33 0
	.cfi_startproc
	push	ebp
.LCFI15:
	.cfi_def_cfa_offset 8
	.cfi_offset 5, -8
	mov	ebp, esp
.LCFI16:
	.cfi_def_cfa_register 5
	sub	esp, 24
	.loc 1 33 0
	mov	DWORD PTR [esp+4], 65535
	mov	DWORD PTR [esp], 1
	call	_Z41__static_initialization_and_destruction_0ii
	leave
	.cfi_restore 5
.LCFI17:
	.cfi_def_cfa 4, 4
	ret
	.cfi_endproc
.LFE980:
	.size	_GLOBAL__sub_I_main, .-_GLOBAL__sub_I_main
	.section	.ctors,"aw",@progbits
	.align 4
	.long	_GLOBAL__sub_I_main
	.weakref	_ZL20__gthrw_pthread_oncePiPFvvE,pthread_once
	.weakref	_ZL27__gthrw_pthread_getspecificj,pthread_getspecific
	.weakref	_ZL27__gthrw_pthread_setspecificjPKv,pthread_setspecific
	.weakref	_ZL22__gthrw_pthread_createPmPK14pthread_attr_tPFPvS3_ES3_,pthread_create
	.weakref	_ZL20__gthrw_pthread_joinmPPv,pthread_join
	.weakref	_ZL21__gthrw_pthread_equalmm,pthread_equal
	.weakref	_ZL20__gthrw_pthread_selfv,pthread_self
	.weakref	_ZL22__gthrw_pthread_detachm,pthread_detach
	.weakref	_ZL22__gthrw_pthread_cancelm,pthread_cancel
	.weakref	_ZL19__gthrw_sched_yieldv,sched_yield
	.weakref	_ZL26__gthrw_pthread_mutex_lockP15pthread_mutex_t,pthread_mutex_lock
	.weakref	_ZL29__gthrw_pthread_mutex_trylockP15pthread_mutex_t,pthread_mutex_trylock
	.weakref	_ZL31__gthrw_pthread_mutex_timedlockP15pthread_mutex_tPK8timespec,pthread_mutex_timedlock
	.weakref	_ZL28__gthrw_pthread_mutex_unlockP15pthread_mutex_t,pthread_mutex_unlock
	.weakref	_ZL26__gthrw_pthread_mutex_initP15pthread_mutex_tPK19pthread_mutexattr_t,pthread_mutex_init
	.weakref	_ZL29__gthrw_pthread_mutex_destroyP15pthread_mutex_t,pthread_mutex_destroy
	.weakref	_ZL30__gthrw_pthread_cond_broadcastP14pthread_cond_t,pthread_cond_broadcast
	.weakref	_ZL27__gthrw_pthread_cond_signalP14pthread_cond_t,pthread_cond_signal
	.weakref	_ZL25__gthrw_pthread_cond_waitP14pthread_cond_tP15pthread_mutex_t,pthread_cond_wait
	.weakref	_ZL30__gthrw_pthread_cond_timedwaitP14pthread_cond_tP15pthread_mutex_tPK8timespec,pthread_cond_timedwait
	.weakref	_ZL28__gthrw_pthread_cond_destroyP14pthread_cond_t,pthread_cond_destroy
	.weakref	_ZL26__gthrw_pthread_key_createPjPFvPvE,pthread_key_create
	.weakref	_ZL26__gthrw_pthread_key_deletej,pthread_key_delete
	.weakref	_ZL30__gthrw_pthread_mutexattr_initP19pthread_mutexattr_t,pthread_mutexattr_init
	.weakref	_ZL33__gthrw_pthread_mutexattr_settypeP19pthread_mutexattr_ti,pthread_mutexattr_settype
	.weakref	_ZL33__gthrw_pthread_mutexattr_destroyP19pthread_mutexattr_t,pthread_mutexattr_destroy
	.text
.Letext0:
	.file 3 "/usr/include/stdio.h"
	.file 4 "/usr/lib/gcc/x86_64-linux-gnu/4.6/include/stdarg.h"
	.file 5 "/usr/lib/gcc/x86_64-linux-gnu/4.6/include/stddef.h"
	.file 6 "/usr/include/wchar.h"
	.file 7 "/usr/include/c++/4.6/cwchar"
	.file 8 "/usr/include/c++/4.6/x86_64-linux-gnu/32/bits/c++config.h"
	.file 9 "/usr/include/c++/4.6/clocale"
	.file 10 "/usr/include/c++/4.6/bits/ios_base.h"
	.file 11 "/usr/include/c++/4.6/cwctype"
	.file 12 "/usr/include/c++/4.6/cstdlib"
	.file 13 "/usr/include/c++/4.6/iosfwd"
	.file 14 "/usr/include/time.h"
	.file 15 "/usr/include/c++/4.6/ext/new_allocator.h"
	.file 16 "/usr/include/c++/4.6/debug/debug.h"
	.file 17 "/usr/include/c++/4.6/bits/char_traits.h"
	.file 18 "/usr/include/locale.h"
	.file 19 "/usr/include/bits/types.h"
	.file 20 "/usr/include/c++/4.6/x86_64-linux-gnu/32/bits/atomic_word.h"
	.file 21 "/usr/include/c++/4.6/ext/numeric_traits.h"
	.file 22 "/usr/include/wctype.h"
	.file 23 "/usr/include/stdlib.h"
	.file 24 "<built-in>"
	.section	.note.GNU-stack,"",@progbits
